; Function Attrs: nounwind uwtable
define range(i32 -12, 1) i32 @ff_set_common_color_ranges2(ptr noundef readonly captures(none) %0, ptr noundef readonly captures(none) %1, ptr noundef readonly captures(none) %2, ptr noundef %3) local_unnamed_addr #3 {
  %.not = icmp eq ptr %3, null
  br i1 %.not, label %.thread64, label %.preheader83

.preheader83:                                     ; preds = %4
  %5 = getelementptr inbounds nuw i8, ptr %0, i64 40
  %6 = load i32, ptr %5, align 8, !tbaa !66
  %.not90 = icmp eq i32 %6, 0
  br i1 %.not90, label %.preheader, label %.lr.ph

.lr.ph:                                           ; preds = %.preheader83
  %7 = getelementptr inbounds nuw i8, ptr %0, i64 32
  %8 = getelementptr inbounds nuw i8, ptr %3, i64 24
  %9 = getelementptr inbounds nuw i8, ptr %3, i64 16
  br label %15

.preheader:                                       ; preds = %.thread, %.preheader83
  %10 = getelementptr inbounds nuw i8, ptr %0, i64 64
  %11 = load i32, ptr %10, align 8, !tbaa !75
  %.not91 = icmp eq i32 %11, 0
  br i1 %.not91, label %._crit_edge, label %.lr.ph89

.lr.ph89:                                         ; preds = %.preheader
  %12 = getelementptr inbounds nuw i8, ptr %0, i64 56
  %13 = getelementptr inbounds nuw i8, ptr %3, i64 24
  %14 = getelementptr inbounds nuw i8, ptr %3, i64 16
  br label %45

15:                                               ; preds = %.lr.ph, %.thread
  %16 = phi i32 [ %6, %.lr.ph ], [ %42, %.thread ]
  %indvars.iv = phi i64 [ 0, %.lr.ph ], [ %indvars.iv.next, %.thread ]
  %17 = getelementptr inbounds nuw ptr, ptr %1, i64 %indvars.iv
  %18 = load ptr, ptr %17, align 8, !tbaa !100
  %19 = getelementptr inbounds nuw i8, ptr %18, i64 32
  %20 = load ptr, ptr %19, align 8, !tbaa !111
  %.not43 = icmp eq ptr %20, null
  br i1 %.not43, label %21, label %.thread

21:                                               ; preds = %15
  %22 = load ptr, ptr %7, align 8, !tbaa !76
  %23 = getelementptr inbounds nuw ptr, ptr %22, i64 %indvars.iv
  %24 = load ptr, ptr %23, align 8, !tbaa !77
  %25 = getelementptr inbounds nuw i8, ptr %24, i64 32
  %26 = load i32, ptr %25, align 8, !tbaa !4
  %27 = icmp eq i32 %26, 0
  br i1 %27, label %28, label %.thread

28:                                               ; preds = %21
  %29 = load ptr, ptr %8, align 8, !tbaa !42
  %30 = load i32, ptr %9, align 8, !tbaa !41
  %31 = add i32 %30, 1
  %32 = zext i32 %31 to i64
  %33 = tail call ptr @av_realloc_array(ptr noundef %29, i64 noundef 8, i64 noundef %32) #10
  %.not6.i = icmp eq ptr %33, null
  br i1 %.not6.i, label %.preheader.i.i, label %37

.preheader.i.i:                                   ; preds = %28
  %34 = load i32, ptr %9, align 8, !tbaa !41
  %.not26.i.i = icmp eq i32 %34, 0
  br i1 %.not26.i.i, label %.thread.thread.i.i, label %.thread64

.thread.thread.i.i:                               ; preds = %.preheader.i.i
  %35 = getelementptr inbounds nuw i8, ptr %3, i64 8
  %36 = load ptr, ptr %35, align 8, !tbaa !29
  tail call void @av_free(ptr noundef %36) #10
  br label %.thread64.sink.split

37:                                               ; preds = %28
  store ptr %33, ptr %8, align 8, !tbaa !42
  %38 = load i32, ptr %9, align 8, !tbaa !41
  %39 = add i32 %38, 1
  store i32 %39, ptr %9, align 8, !tbaa !41
  %40 = zext i32 %38 to i64
  %41 = getelementptr inbounds nuw ptr, ptr %33, i64 %40
  store ptr %19, ptr %41, align 8, !tbaa !43
  store ptr %3, ptr %19, align 8, !tbaa !23
  %.pre = load i32, ptr %5, align 8, !tbaa !66
  br label %.thread

.thread:                                          ; preds = %15, %21, %37
  %42 = phi i32 [ %16, %15 ], [ %16, %21 ], [ %.pre, %37 ]
  %indvars.iv.next = add nuw nsw i64 %indvars.iv, 1
  %43 = zext i32 %42 to i64
  %44 = icmp samesign ult i64 %indvars.iv.next, %43
  br i1 %44, label %15, label %.preheader, !llvm.loop !112

45:                                               ; preds = %.lr.ph89, %.thread70
  %46 = phi i32 [ %11, %.lr.ph89 ], [ %72, %.thread70 ]
  %indvars.iv93 = phi i64 [ 0, %.lr.ph89 ], [ %indvars.iv.next94, %.thread70 ]
  %47 = getelementptr inbounds nuw ptr, ptr %2, i64 %indvars.iv93
  %48 = load ptr, ptr %47, align 8, !tbaa !100
  %49 = getelementptr inbounds nuw i8, ptr %48, i64 32
  %50 = load ptr, ptr %49, align 8, !tbaa !111
  %.not44 = icmp eq ptr %50, null
  br i1 %.not44, label %51, label %.thread70

51:                                               ; preds = %45
  %52 = load ptr, ptr %12, align 8, !tbaa !81
  %53 = getelementptr inbounds nuw ptr, ptr %52, i64 %indvars.iv93
  %54 = load ptr, ptr %53, align 8, !tbaa !77
  %55 = getelementptr inbounds nuw i8, ptr %54, i64 32
  %56 = load i32, ptr %55, align 8, !tbaa !4
  %57 = icmp eq i32 %56, 0
  br i1 %57, label %58, label %.thread70

58:                                               ; preds = %51
  %59 = load ptr, ptr %13, align 8, !tbaa !42
  %60 = load i32, ptr %14, align 8, !tbaa !41
  %61 = add i32 %60, 1
  %62 = zext i32 %61 to i64
  %63 = tail call ptr @av_realloc_array(ptr noundef %59, i64 noundef 8, i64 noundef %62) #10
  %.not6.i50 = icmp eq ptr %63, null
  br i1 %.not6.i50, label %.preheader.i.i52, label %67

.preheader.i.i52:                                 ; preds = %58
  %64 = load i32, ptr %14, align 8, !tbaa !41
  %.not26.i.i53 = icmp eq i32 %64, 0
  br i1 %.not26.i.i53, label %.thread.thread.i.i54, label %.thread64

.thread.thread.i.i54:                             ; preds = %.preheader.i.i52
  %65 = getelementptr inbounds nuw i8, ptr %3, i64 8
  %66 = load ptr, ptr %65, align 8, !tbaa !29
  tail call void @av_free(ptr noundef %66) #10
  br label %.thread64.sink.split

67:                                               ; preds = %58
  store ptr %63, ptr %13, align 8, !tbaa !42
  %68 = load i32, ptr %14, align 8, !tbaa !41
  %69 = add i32 %68, 1
  store i32 %69, ptr %14, align 8, !tbaa !41
  %70 = zext i32 %68 to i64
  %71 = getelementptr inbounds nuw ptr, ptr %63, i64 %70
  store ptr %49, ptr %71, align 8, !tbaa !43
  store ptr %3, ptr %49, align 8, !tbaa !23
  %.pre96 = load i32, ptr %10, align 8, !tbaa !75
  br label %.thread70

.thread70:                                        ; preds = %45, %51, %67
  %72 = phi i32 [ %46, %45 ], [ %46, %51 ], [ %.pre96, %67 ]
  %indvars.iv.next94 = add nuw nsw i64 %indvars.iv93, 1
  %73 = zext i32 %72 to i64
  %74 = icmp samesign ult i64 %indvars.iv.next94, %73
  br i1 %74, label %45, label %._crit_edge, !llvm.loop !113

._crit_edge:                                      ; preds = %.thread70, %.preheader
  %75 = getelementptr inbounds nuw i8, ptr %3, i64 16
  %76 = load i32, ptr %75, align 8, !tbaa !41
  %.not45 = icmp eq i32 %76, 0
  br i1 %.not45, label %ff_formats_unref.exit, label %.thread64

ff_formats_unref.exit:                            ; preds = %._crit_edge
  %77 = getelementptr inbounds nuw i8, ptr %3, i64 8
  %78 = load ptr, ptr %77, align 8, !tbaa !29
  tail call void @av_free(ptr noundef %78) #10
  %79 = getelementptr inbounds nuw i8, ptr %3, i64 24
  br label %.thread64.sink.split

.thread64.sink.split:                             ; preds = %ff_formats_unref.exit, %.thread.thread.i.i, %.thread.thread.i.i54
  %.sink.in = phi ptr [ %13, %.thread.thread.i.i54 ], [ %8, %.thread.thread.i.i ], [ %79, %ff_formats_unref.exit ]
  %.0.ph = phi i32 [ -12, %.thread.thread.i.i54 ], [ -12, %.thread.thread.i.i ], [ 0, %ff_formats_unref.exit ]
  %.sink = load ptr, ptr %.sink.in, align 8, !tbaa !42
  tail call void @av_free(ptr noundef %.sink) #10
  tail call void @av_free(ptr noundef nonnull %3) #10
  br label %.thread64

.thread64:                                        ; preds = %.thread64.sink.split, %.preheader.i.i52, %.preheader.i.i, %._crit_edge, %4
  %.0 = phi i32 [ -12, %4 ], [ 0, %._crit_edge ], [ -12, %.preheader.i.i ], [ -12, %.preheader.i.i52 ], [ %.0.ph, %.thread64.sink.split ]
  ret i32 %.0
}